; Function Attrs: nounwind uwtable
define void @ff_v4l2_context_release(ptr noundef %0) local_unnamed_addr #0 {
  %2 = getelementptr inbounds nuw i8, ptr %0, i64 248
  %3 = load ptr, ptr %2, align 8, !tbaa !31
  %.not = icmp eq ptr %3, null
  br i1 %.not, label %16, label %4

4:                                                ; preds = %1
  %5 = tail call fastcc i32 @v4l2_release_buffers(ptr noundef nonnull %0)
  %.not5 = icmp eq i32 %5, 0
  br i1 %.not5, label %15, label %6

6:                                                ; preds = %4
  %7 = getelementptr inbounds nuw i8, ptr %0, i64 8
  %8 = load i32, ptr %7, align 8, !tbaa !4
  %switch.tableidx = add i32 %8, -2
  %9 = icmp ult i32 %switch.tableidx, 13
  br i1 %9, label %switch.lookup, label %logger.exit

switch.lookup:                                    ; preds = %6
  %10 = zext nneg i32 %switch.tableidx to i64
  %switch.gep = getelementptr inbounds nuw [13 x i64], ptr @switch.table.ff_v4l2_context_init.34, i64 0, i64 %10
  %switch.load = load i64, ptr %switch.gep, align 8
  br label %logger.exit

logger.exit:                                      ; preds = %6, %switch.lookup
  %.sink.i.i = phi i64 [ %switch.load, %switch.lookup ], [ -4104, %6 ]
  %11 = getelementptr inbounds i8, ptr %0, i64 %.sink.i.i
  %12 = getelementptr inbounds nuw i8, ptr %11, i64 4648
  %13 = load ptr, ptr %12, align 8, !tbaa !25
  %14 = load ptr, ptr %0, align 8, !tbaa !26
  tail call void (ptr, i32, ptr, ...) @av_log(ptr noundef %13, i32 noundef 24, ptr noundef nonnull @.str.2, ptr noundef %14) #8
  br label %15

15:                                               ; preds = %logger.exit, %4
  tail call void @av_freep(ptr noundef nonnull %2) #8
  br label %16

16:                                               ; preds = %1, %15
  ret void
}